; Function Attrs: nounwind uwtable
define internal void @decode_flush(ptr noundef readonly captures(none) %0) #3 {
  %2 = getelementptr inbounds nuw i8, ptr %0, i64 32
  %3 = load ptr, ptr %2, align 8, !tbaa !4
  %4 = getelementptr inbounds nuw i8, ptr %3, i64 1232
  store i32 0, ptr %4, align 16, !tbaa !47
  %5 = getelementptr inbounds nuw i8, ptr %3, i64 2236
  store i32 0, ptr %5, align 4, !tbaa !279
  %6 = getelementptr inbounds nuw i8, ptr %3, i64 2224
  %7 = load ptr, ptr %6, align 16, !tbaa !68
  tail call void @av_frame_unref(ptr noundef %7) #14
  ret void
}